Certificate:
    Data:
        Version: 3 (0x2)
        Serial Number: 1 (0x1)
    Signature Algorithm: sha1WithRSAEncryption
        Issuer: C=CN, ST=t, L=t, O=t, OU=t, CN=t/emailAddress=t
        Validity
            Not Before: Nov 28 14:07:56 2016 GMT
            Not After : Feb 14 14:07:56 2025 GMT
        Subject: C=CN, ST=t, O=t, OU=t, CN=t/emailAddress=t
        Subject Public Key Info:
            Public Key Algorithm: rsaEncryption
                Public-Key: (2048 bit)
                Modulus:
                    00:b3:f0:a1:72:e1:b1:d8:04:fb:e4:d7:b2:dd:04:
                    8f:9c:f7:88:ac:78:e2:3e:02:f8:07:e6:0f:ca:7c:
                    e1:62:8b:a9:df:67:92:ba:71:89:dd:25:28:28:b0:
                    ee:76:a1:26:63:b9:cb:3b:21:60:5c:17:e0:50:fd:
                    96:e1:ca:c0:4a:94:38:9f:1b:41:b5:93:c4:d6:5e:
                    c8:39:df:21:0d:ad:ff:1d:bf:c6:0c:b9:ae:d8:c6:
                    95:e5:f0:85:0e:7a:b8:ab:0e:3c:02:15:ac:c1:1f:
                    38:f9:47:7a:37:3f:63:2b:3f:ee:1d:5c:3e:71:b3:
                    62:4b:62:d2:e1:dd:74:16:cd:11:e2:4e:f1:dc:32:
                    3d:35:f4:bb:5e:c8:76:f9:69:6b:63:c8:14:2f:57:
                    fa:6d:64:86:41:21:4b:46:87:0f:c7:d8:8d:a0:30:
                    80:35:bc:87:33:51:f8:a2:cb:ee:18:5f:3e:42:52:
                    f2:8e:44:4d:b2:24:a1:c8:17:bf:91:90:f7:e8:c7:
                    c9:90:d4:0b:e7:8a:9e:fc:8b:5e:9e:db:81:c7:9c:
                    13:29:ee:65:d7:90:e4:47:b3:9b:b7:7e:1a:ba:ab:
                    c0:49:fb:1c:4f:8d:9d:a8:f0:fa:29:86:01:90:3c:
                    ef:f0:7c:bc:74:cf:bd:ae:f5:c6:19:ab:6a:0d:8b:
                    2f:4d
                Exponent: 65537 (0x10001)
        X509v3 extensions:
            X509v3 Subject Key Identifier: 
                1C:D1:9D:57:C1:07:AA:D2:C5:21:E0:AA:80:92:AB:9B:82:11:B7:2F
            X509v3 Authority Key Identifier: 
                keyid:0F:FA:0E:0A:DE:B4:1E:35:85:E1:35:9B:F7:D0:D9:5F:E6:B3:3F:46

            X509v3 Basic Constraints: 
                CA:TRUE
    Signature Algorithm: sha1WithRSAEncryption
         50:c1:1d:8f:9f:a7:9f:68:b2:2c:f4:3f:85:0d:cf:90:7c:a6:
         d6:3a:22:54:0a:7a:1e:37:8b:eb:77:79:2b:93:d8:b0:4c:7f:
         2a:dc:f6:39:28:e8:f6:1c:62:b7:33:da:8b:a9:84:a1:0b:1c:
         81:b8:54:eb:46:c3:31:ef:11:5c:88:18:2b:94:74:f9:f7:6d:
         e0:6e:88:ee:cc:55:3c:fa:99:d3:d5:88:7a:5c:0f:5e:2a:d9:
         d2:37:c1:b3:69:67:5b:12:69:08:67:2f:eb:c2:41:9f:97:f4:
         be:db:01:f3:5f:ae:88:ac:3f:70:48:fb:81:bb:92:37:99:17:
         ea:72:d3:42:a0:42:82:d7:15:63:26:04:8e:4d:2a:e6:85:ca:
         bf:6e:cf:d4:f1:e1:f0:b0:8e:bd:69:81:f0:f6:30:d0:e6:bd:
         5b:cf:4a:42:17:05:86:92:f2:89:f9:af:02:30:02:a2:a2:51:
         01:43:d6:a6:87:66:30:74:8a:2f:61:28:84:13:36:ee:04:27:
         57:17:e2:29:40:54:ff:61:c5:05:a3:e5:26:34:1c:f2:2e:12:
         21:0f:e3:b7:3f:e3:27:b0:5b:b4:90:81:8d:af:ea:f0:1a:82:
         7b:cd:31:72:83:51:fd:5c:53:60:92:30:a7:32:88:1e:03:1a:
         b4:ef:9b:c6
-----BEGIN CERTIFICATE-----
MIIDdTCCAl2gAwIBAgIBATANBgkqhkiG9w0BAQUFADBbMQswCQYDVQQGEwJDTjEK
MAgGA1UECAwBdDEKMAgGA1UEBwwBdDEKMAgGA1UECgwBdDEKMAgGA1UECwwBdDEK
MAgGA1UEAwwBdDEQMA4GCSqGSIb3DQEJARYBdDAeFw0xNjExMjgxNDA3NTZaFw0y
NTAyMTQxNDA3NTZaME8xCzAJBgNVBAYTAkNOMQowCAYDVQQIDAF0MQowCAYDVQQK
DAF0MQowCAYDVQQLDAF0MQowCAYDVQQDDAF0MRAwDgYJKoZIhvcNAQkBFgF0MIIB
IjANBgkqhkiG9w0BAQEFAAOCAQ8AMIIBCgKCAQEAs/ChcuGx2AT75Ney3QSPnPeI
rHjiPgL4B+YPynzhYoup32eSunGJ3SUoKLDudqEmY7nLOyFgXBfgUP2W4crASpQ4
nxtBtZPE1l7IOd8hDa3/Hb/GDLmu2MaV5fCFDnq4qw48AhWswR84+Ud6Nz9jKz/u
HVw+cbNiS2LS4d10Fs0R4k7x3DI9NfS7Xsh2+WlrY8gUL1f6bWSGQSFLRocPx9iN
oDCANbyHM1H4osvuGF8+QlLyjkRNsiShyBe/kZD36MfJkNQL54qe/ItentuBx5wT
Ke5l15DkR7Obt34auqvASfscT42dqPD6KYYBkDzv8Hy8dM+9rvXGGatqDYsvTQID
AQABo1AwTjAdBgNVHQ4EFgQUHNGdV8EHqtLFIeCqgJKrm4IRty8wHwYDVR0jBBgw
FoAUD/oOCt60HjWF4TWb99DZX+azP0YwDAYDVR0TBAUwAwEB/zANBgkqhkiG9w0B
AQUFAAOCAQEAUMEdj5+nn2iyLPQ/hQ3PkHym1joiVAp6HjeL63d5K5PYsEx/Ktz2
OSjo9hxitzPai6mEoQscgbhU60bDMe8RXIgYK5R0+fdt4G6I7sxVPPqZ09WIelwP
XirZ0jfBs2lnWxJpCGcv68JBn5f0vtsB81+uiKw/cEj7gbuSN5kX6nLTQqBCgtcV
YyYEjk0q5oXKv27P1PHh8LCOvWmB8PYw0Oa9W89KQhcFhpLyifmvAjACoqJRAUPW
podmMHSKL2EohBM27gQnVxfiKUBU/2HFBaPlJjQc8i4SIQ/jtz/jJ7BbtJCBja/q
8BqCe80xcoNR/VxTYJIwpzKIHgMatO+bxg==
-----END CERTIFICATE-----
