Certificate:
    Data:
        Version: 3 (0x2)
        Serial Number: 2 (0x2)
    Signature Algorithm: sha1WithRSAEncryption
        Issuer: C=CN, ST=t, L=t, O=t, OU=t, CN=t/emailAddress=t
        Validity
            Not Before: Nov 28 14:11:34 2016 GMT
            Not After : Feb 14 14:11:34 2025 GMT
        Subject: C=CN, ST=t, O=t, OU=t, CN=t/emailAddress=t
        Subject Public Key Info:
            Public Key Algorithm: rsaEncryption
                Public-Key: (2048 bit)
                Modulus:
                    00:9e:fe:5a:3c:0a:bf:bb:68:65:14:7b:bf:23:eb:
                    55:73:05:a0:5a:0a:ab:75:95:16:cf:17:aa:21:a9:
                    ac:e6:c1:cd:b9:82:14:de:bd:3a:93:6f:e1:9b:24:
                    d7:e5:5c:db:85:66:a6:2d:d7:e7:e5:14:da:f0:b8:
                    ec:0a:20:3a:ac:47:6a:51:65:eb:c5:5e:b0:7a:3a:
                    5d:78:2c:9b:6d:a1:46:87:4b:78:98:d1:39:aa:89:
                    51:c1:83:dd:5c:b3:02:24:82:95:b9:d8:59:47:49:
                    b9:87:73:09:67:95:2a:ad:a7:da:2a:ad:e7:65:06:
                    86:86:8b:ff:09:cd:0f:9c:87:9c:4b:2f:01:95:f9:
                    09:0f:fb:12:b6:34:0c:0e:dc:e8:a6:78:3e:a9:5c:
                    37:8d:68:b8:cc:7e:5f:af:a1:f7:d2:4d:89:ae:47:
                    28:34:20:dd:a7:42:56:d6:35:25:bb:df:f7:a1:fe:
                    af:55:f1:be:30:ff:1b:71:4e:2b:54:16:31:26:7f:
                    a6:a8:a5:36:de:19:86:78:de:26:36:44:78:dd:09:
                    fa:41:39:d0:b2:8f:7b:d0:af:fe:69:d7:ed:2c:e3:
                    92:48:a9:13:bd:63:c2:6b:d8:f2:8c:27:37:45:8d:
                    8e:23:de:59:49:98:fb:16:cd:dd:1a:c0:bd:f5:dd:
                    df:d5
                Exponent: 65537 (0x10001)
        X509v3 extensions:
            X509v3 Subject Key Identifier: 
                C3:0A:C4:58:52:A8:F2:95:14:4C:46:B9:2F:EF:D6:46:5E:69:7D:D3
            X509v3 Authority Key Identifier: 
                keyid:0F:FA:0E:0A:DE:B4:1E:35:85:E1:35:9B:F7:D0:D9:5F:E6:B3:3F:46

            X509v3 Basic Constraints: 
                CA:TRUE
    Signature Algorithm: sha1WithRSAEncryption
         60:52:3e:cd:18:f5:ef:84:b1:57:d7:39:4f:e2:8c:ba:41:a3:
         e3:11:e9:08:a4:02:97:be:8c:0f:21:bf:c4:ec:31:92:9e:cf:
         29:80:31:c1:a2:52:f0:3a:01:4a:fd:ce:8f:3d:5f:d7:e9:03:
         8b:fb:fd:9e:67:72:e0:81:e4:4e:75:17:b9:9f:ca:43:eb:f3:
         aa:2d:80:32:3e:de:ea:ea:4c:08:49:01:53:74:df:4d:87:f4:
         be:a4:78:7e:53:f5:e9:6d:74:27:8a:ad:9c:31:86:02:43:6a:
         68:c9:ff:cb:53:04:dc:15:7e:f9:cf:6c:b1:94:e3:09:3b:fe:
         cf:f3:bb:16:36:36:50:48:92:d8:46:70:c7:cc:a5:3e:26:7c:
         79:40:e8:69:85:f4:c4:01:de:2c:e6:4e:1d:f3:7d:f9:bb:3c:
         73:b7:61:82:06:f0:8e:e6:76:86:2b:be:79:a7:69:0a:61:5c:
         85:a0:52:c8:dc:e3:6d:8c:9e:49:7b:a8:17:d8:f6:2d:6c:1c:
         f0:ec:7a:2a:82:32:a1:58:28:4a:5c:80:ca:96:12:da:01:93:
         f5:8d:f5:be:f3:59:1d:8f:c4:52:5f:8a:6a:b9:0b:dc:61:93:
         e0:c9:06:26:f8:22:90:9e:28:6d:4a:80:f7:e4:6d:50:ae:50:
         61:40:2b:8c
-----BEGIN CERTIFICATE-----
MIIDdTCCAl2gAwIBAgIBAjANBgkqhkiG9w0BAQUFADBbMQswCQYDVQQGEwJDTjEK
MAgGA1UECAwBdDEKMAgGA1UEBwwBdDEKMAgGA1UECgwBdDEKMAgGA1UECwwBdDEK
MAgGA1UEAwwBdDEQMA4GCSqGSIb3DQEJARYBdDAeFw0xNjExMjgxNDExMzRaFw0y
NTAyMTQxNDExMzRaME8xCzAJBgNVBAYTAkNOMQowCAYDVQQIDAF0MQowCAYDVQQK
DAF0MQowCAYDVQQLDAF0MQowCAYDVQQDDAF0MRAwDgYJKoZIhvcNAQkBFgF0MIIB
IjANBgkqhkiG9w0BAQEFAAOCAQ8AMIIBCgKCAQEAnv5aPAq/u2hlFHu/I+tVcwWg
WgqrdZUWzxeqIams5sHNuYIU3r06k2/hmyTX5VzbhWamLdfn5RTa8LjsCiA6rEdq
UWXrxV6wejpdeCybbaFGh0t4mNE5qolRwYPdXLMCJIKVudhZR0m5h3MJZ5Uqrafa
Kq3nZQaGhov/Cc0PnIecSy8BlfkJD/sStjQMDtzopng+qVw3jWi4zH5fr6H30k2J
rkcoNCDdp0JW1jUlu9/3of6vVfG+MP8bcU4rVBYxJn+mqKU23hmGeN4mNkR43Qn6
QTnQso970K/+adftLOOSSKkTvWPCa9jyjCc3RY2OI95ZSZj7Fs3dGsC99d3f1QID
AQABo1AwTjAdBgNVHQ4EFgQUwwrEWFKo8pUUTEa5L+/WRl5pfdMwHwYDVR0jBBgw
FoAUD/oOCt60HjWF4TWb99DZX+azP0YwDAYDVR0TBAUwAwEB/zANBgkqhkiG9w0B
AQUFAAOCAQEAYFI+zRj174SxV9c5T+KMukGj4xHpCKQCl76MDyG/xOwxkp7PKYAx
waJS8DoBSv3Ojz1f1+kDi/v9nmdy4IHkTnUXuZ/KQ+vzqi2AMj7e6upMCEkBU3Tf
TYf0vqR4flP16W10J4qtnDGGAkNqaMn/y1ME3BV++c9ssZTjCTv+z/O7FjY2UEiS
2EZwx8ylPiZ8eUDoaYX0xAHeLOZOHfN9+bs8c7dhggbwjuZ2hiu+eadpCmFchaBS
yNzjbYyeSXuoF9j2LWwc8Ox6KoIyoVgoSlyAypYS2gGT9Y31vvNZHY/EUl+KarkL
3GGT4MkGJvgikJ4obUqA9+RtUK5QYUArjA==
-----END CERTIFICATE-----
