Certificate:
    Data:
        Version: 3 (0x2)
        Serial Number: 3 (0x3)
    Signature Algorithm: sha1WithRSAEncryption
        Issuer: C=CN, ST=t, L=t, O=t, OU=t, CN=t/emailAddress=t
        Validity
            Not Before: Nov 28 14:12:57 2016 GMT
            Not After : Feb 14 14:12:57 2025 GMT
        Subject: C=CN, ST=t, O=t, OU=t, CN=t/emailAddress=t
        Subject Public Key Info:
            Public Key Algorithm: rsaEncryption
                Public-Key: (2048 bit)
                Modulus:
                    00:b2:a1:dd:5f:01:06:82:bf:e2:0a:e0:77:bd:80:
                    7b:0f:11:09:35:a3:03:23:48:97:da:2b:31:fd:d5:
                    8a:0b:51:62:19:a6:27:0e:61:78:14:9e:49:48:6c:
                    1a:c6:74:93:f8:85:36:b4:51:cf:60:2e:43:b8:e0:
                    d4:db:34:00:e5:f5:c3:e6:9b:d6:8c:d9:f2:f8:2a:
                    50:13:63:18:81:61:8d:c1:9d:f2:5d:ad:d3:86:09:
                    3e:b6:5b:b2:63:71:30:96:8c:71:41:e7:16:23:d8:
                    71:9e:86:ff:99:a6:a0:d0:a2:28:c5:15:b7:da:89:
                    3f:79:c3:5e:da:4c:e2:18:f7:39:ce:a9:43:94:63:
                    cb:73:cf:9c:60:14:6a:84:87:e4:93:54:d9:83:f5:
                    28:17:a6:03:33:63:33:0c:90:2e:88:bf:84:66:97:
                    7b:53:de:ac:10:c4:4c:59:a3:4d:12:4f:5b:69:d2:
                    91:40:ec:c9:e2:32:ee:e4:87:e7:7f:bd:3b:09:69:
                    1b:3b:86:42:95:16:44:76:84:b0:e5:a8:b4:42:54:
                    e2:8a:94:0b:b2:42:ae:7b:43:a5:d4:4b:31:3d:d0:
                    f3:6b:ac:f1:0e:15:25:53:69:38:64:97:56:07:45:
                    71:07:4d:c3:6c:7d:c6:93:b0:5a:c9:e3:e4:02:ae:
                    0e:d1
                Exponent: 65537 (0x10001)
        X509v3 extensions:
            X509v3 Subject Key Identifier: 
                39:54:D4:58:82:6E:74:CE:9E:1F:CE:18:26:16:F9:C4:7F:AB:05:BA
            X509v3 Authority Key Identifier: 
                keyid:0F:FA:0E:0A:DE:B4:1E:35:85:E1:35:9B:F7:D0:D9:5F:E6:B3:3F:46

            X509v3 Basic Constraints: 
                CA:TRUE
    Signature Algorithm: sha1WithRSAEncryption
         d3:59:ee:f4:ff:e2:bc:4f:d9:a8:6f:db:e6:1e:11:08:2d:1b:
         94:30:be:f1:53:db:d1:7f:a2:ea:4d:b6:2e:06:d0:22:80:fc:
         2c:33:50:ff:3c:31:e7:2e:dc:89:a6:94:15:d0:8c:16:aa:f9:
         7f:e7:fa:02:4f:57:67:42:0d:c9:e7:61:08:ce:9b:c8:3b:a2:
         92:67:56:89:09:ae:83:31:9e:f9:db:47:5d:ca:95:a3:bf:32:
         82:68:29:16:f5:53:e7:09:2b:cd:13:91:75:31:d5:51:e4:f6:
         f5:b3:e4:9b:f1:e0:50:b2:eb:2b:71:1a:64:db:d3:ed:21:6b:
         5c:b9:10:99:30:cf:ec:26:91:32:b7:4b:5c:8d:78:04:a2:9a:
         ec:12:85:3d:f6:02:6f:9e:2f:35:69:2a:d7:9d:ff:ec:c4:d3:
         c9:47:f0:2c:86:c4:a6:43:57:1d:4b:62:37:a5:eb:2f:c1:5c:
         cd:4a:23:d1:f9:b4:e6:f1:d4:53:8f:2a:c8:2e:5a:3c:6a:33:
         bd:d0:e6:44:72:bb:7c:95:a9:f7:44:b7:0a:c5:f5:7a:63:9c:
         e7:ab:57:c5:19:92:a6:9c:31:7a:20:42:4b:d9:29:b3:5b:45:
         9f:0d:50:21:ad:e4:fd:ed:b8:b5:a9:89:63:99:88:b9:c2:5e:
         6d:63:f5:07
-----BEGIN CERTIFICATE-----
MIIDdTCCAl2gAwIBAgIBAzANBgkqhkiG9w0BAQUFADBbMQswCQYDVQQGEwJDTjEK
MAgGA1UECAwBdDEKMAgGA1UEBwwBdDEKMAgGA1UECgwBdDEKMAgGA1UECwwBdDEK
MAgGA1UEAwwBdDEQMA4GCSqGSIb3DQEJARYBdDAeFw0xNjExMjgxNDEyNTdaFw0y
NTAyMTQxNDEyNTdaME8xCzAJBgNVBAYTAkNOMQowCAYDVQQIDAF0MQowCAYDVQQK
DAF0MQowCAYDVQQLDAF0MQowCAYDVQQDDAF0MRAwDgYJKoZIhvcNAQkBFgF0MIIB
IjANBgkqhkiG9w0BAQEFAAOCAQ8AMIIBCgKCAQEAsqHdXwEGgr/iCuB3vYB7DxEJ
NaMDI0iX2isx/dWKC1FiGaYnDmF4FJ5JSGwaxnST+IU2tFHPYC5DuODU2zQA5fXD
5pvWjNny+CpQE2MYgWGNwZ3yXa3Thgk+tluyY3EwloxxQecWI9hxnob/maag0KIo
xRW32ok/ecNe2kziGPc5zqlDlGPLc8+cYBRqhIfkk1TZg/UoF6YDM2MzDJAuiL+E
Zpd7U96sEMRMWaNNEk9badKRQOzJ4jLu5Ifnf707CWkbO4ZClRZEdoSw5ai0QlTi
ipQLskKue0Ol1EsxPdDza6zxDhUlU2k4ZJdWB0VxB03DbH3Gk7BayePkAq4O0QID
AQABo1AwTjAdBgNVHQ4EFgQUOVTUWIJudM6eH84YJhb5xH+rBbowHwYDVR0jBBgw
FoAUD/oOCt60HjWF4TWb99DZX+azP0YwDAYDVR0TBAUwAwEB/zANBgkqhkiG9w0B
AQUFAAOCAQEA01nu9P/ivE/ZqG/b5h4RCC0blDC+8VPb0X+i6k22LgbQIoD8LDNQ
/zwx5y7ciaaUFdCMFqr5f+f6Ak9XZ0INyedhCM6byDuikmdWiQmugzGe+dtHXcqV
o78ygmgpFvVT5wkrzRORdTHVUeT29bPkm/HgULLrK3EaZNvT7SFrXLkQmTDP7CaR
MrdLXI14BKKa7BKFPfYCb54vNWkq153/7MTTyUfwLIbEpkNXHUtiN6XrL8FczUoj
0fm05vHUU48qyC5aPGozvdDmRHK7fJWp90S3CsX1emOc56tXxRmSppwxeiBCS9kp
s1tFnw1QIa3k/e24tamJY5mIucJebWP1Bw==
-----END CERTIFICATE-----
