Certificate:
    Data:
        Version: 3 (0x2)
        Serial Number: 4 (0x4)
    Signature Algorithm: sha1WithRSAEncryption
        Issuer: C=CN, ST=t, L=t, O=t, OU=t, CN=t/emailAddress=t
        Validity
            Not Before: Dec  5 12:39:48 2016 GMT
            Not After : Feb 21 12:39:48 2025 GMT
        Subject: C=CN, ST=t, O=t, OU=t, CN=t/emailAddress=t
        Subject Public Key Info:
            Public Key Algorithm: rsaEncryption
                Public-Key: (2048 bit)
                Modulus:
                    00:df:b1:f1:5a:8e:12:4b:39:d7:b0:61:8d:68:fc:
                    0a:6c:d3:ce:58:17:b6:e9:ec:f7:9d:b5:01:64:b0:
                    5c:fc:8a:ef:91:10:16:c1:b1:ed:de:eb:39:2a:5f:
                    cd:aa:d3:e2:26:5a:7e:78:6b:59:9c:34:58:93:b1:
                    7f:21:03:3e:8b:84:25:56:88:c8:35:03:87:91:ff:
                    38:b9:e3:eb:ff:d3:a4:6c:60:a3:77:e5:32:b7:73:
                    18:7f:81:48:97:37:d4:86:3c:12:54:61:7a:92:d6:
                    67:f5:a0:09:bb:05:bd:3d:f5:8d:3a:5c:c7:2a:aa:
                    0b:a5:03:9e:cc:2b:dc:25:d3:a0:28:ce:02:5c:69:
                    f2:bb:3b:8e:ac:47:f4:83:ec:ba:74:39:93:b7:f8:
                    b7:33:7b:73:6f:a0:8d:7e:57:50:f1:ec:1c:00:5e:
                    e2:ed:98:f2:66:70:65:cd:36:46:ab:c9:0e:cd:a4:
                    2e:a9:dd:55:69:39:5e:36:6b:d0:09:e4:ea:18:0b:
                    80:14:fa:fa:d1:ba:2f:af:fd:a9:20:a3:de:09:08:
                    97:bc:de:de:3e:65:05:64:2f:88:5d:a1:b6:70:ec:
                    ea:8d:bd:14:55:3d:47:00:9f:df:33:4c:ae:cd:20:
                    0a:23:85:98:64:90:a2:5e:e4:af:e3:7e:a1:cd:04:
                    92:1d
                Exponent: 65537 (0x10001)
        X509v3 extensions:
            X509v3 Subject Key Identifier: 
                94:F1:5F:73:E6:52:82:34:D5:A4:98:E3:33:F3:AB:B3:48:41:26:64
            X509v3 Authority Key Identifier: 
                keyid:0F:FA:0E:0A:DE:B4:1E:35:85:E1:35:9B:F7:D0:D9:5F:E6:B3:3F:46

            X509v3 Basic Constraints: 
                CA:TRUE
    Signature Algorithm: sha1WithRSAEncryption
         91:4b:1a:61:17:c1:b7:17:f0:1d:b9:9e:c4:b6:6f:4e:7a:51:
         16:d2:94:bc:73:fe:12:de:9c:c5:41:01:06:57:2c:d7:0f:45:
         ff:bd:a5:3c:9d:54:c8:18:7f:59:91:42:b4:9e:2a:54:df:0a:
         52:41:c4:24:6a:08:29:3c:05:ab:e4:ed:b4:cc:7e:b7:53:64:
         58:49:5f:16:9c:d3:6b:64:47:9e:b5:9f:b9:54:54:cc:53:dc:
         5b:5a:ae:ba:15:bd:39:7f:fd:70:43:3f:d1:ca:e6:cd:b6:20:
         0c:82:1a:84:6e:5c:44:18:69:25:5c:9d:b1:df:02:c1:7c:4a:
         0f:22:58:f3:34:47:e7:b2:1a:dc:fc:d6:e3:06:e2:10:e7:09:
         17:a2:43:b3:71:c8:ba:5f:75:ae:d9:b2:f3:c2:c7:e5:8b:03:
         bb:dc:82:10:6b:ca:7c:53:11:68:25:7e:76:24:dd:fc:29:71:
         fb:26:31:de:0c:3b:41:71:f0:e1:e5:3e:47:ad:08:82:0d:d7:
         a1:c8:26:94:c9:1b:d6:64:df:cc:f0:e5:a2:76:14:8b:92:9e:
         47:4e:a8:30:ee:78:03:a8:11:15:3b:f9:b0:b8:3a:fa:97:55:
         5d:1f:ad:4e:4e:df:87:2e:d4:2c:c0:34:17:a9:6a:95:b7:1d:
         6b:cd:a0:69
-----BEGIN CERTIFICATE-----
MIIDdTCCAl2gAwIBAgIBBDANBgkqhkiG9w0BAQUFADBbMQswCQYDVQQGEwJDTjEK
MAgGA1UECAwBdDEKMAgGA1UEBwwBdDEKMAgGA1UECgwBdDEKMAgGA1UECwwBdDEK
MAgGA1UEAwwBdDEQMA4GCSqGSIb3DQEJARYBdDAeFw0xNjEyMDUxMjM5NDhaFw0y
NTAyMjExMjM5NDhaME8xCzAJBgNVBAYTAkNOMQowCAYDVQQIDAF0MQowCAYDVQQK
DAF0MQowCAYDVQQLDAF0MQowCAYDVQQDDAF0MRAwDgYJKoZIhvcNAQkBFgF0MIIB
IjANBgkqhkiG9w0BAQEFAAOCAQ8AMIIBCgKCAQEA37HxWo4SSznXsGGNaPwKbNPO
WBe26ez3nbUBZLBc/IrvkRAWwbHt3us5Kl/NqtPiJlp+eGtZnDRYk7F/IQM+i4Ql
VojINQOHkf84uePr/9OkbGCjd+Uyt3MYf4FIlzfUhjwSVGF6ktZn9aAJuwW9PfWN
OlzHKqoLpQOezCvcJdOgKM4CXGnyuzuOrEf0g+y6dDmTt/i3M3tzb6CNfldQ8ewc
AF7i7ZjyZnBlzTZGq8kOzaQuqd1VaTleNmvQCeTqGAuAFPr60bovr/2pIKPeCQiX
vN7ePmUFZC+IXaG2cOzqjb0UVT1HAJ/fM0yuzSAKI4WYZJCiXuSv436hzQSSHQID
AQABo1AwTjAdBgNVHQ4EFgQUlPFfc+ZSgjTVpJjjM/Ors0hBJmQwHwYDVR0jBBgw
FoAUD/oOCt60HjWF4TWb99DZX+azP0YwDAYDVR0TBAUwAwEB/zANBgkqhkiG9w0B
AQUFAAOCAQEAkUsaYRfBtxfwHbmexLZvTnpRFtKUvHP+Et6cxUEBBlcs1w9F/72l
PJ1UyBh/WZFCtJ4qVN8KUkHEJGoIKTwFq+TttMx+t1NkWElfFpzTa2RHnrWfuVRU
zFPcW1quuhW9OX/9cEM/0crmzbYgDIIahG5cRBhpJVydsd8CwXxKDyJY8zRH57Ia
3PzW4wbiEOcJF6JDs3HIul91rtmy88LH5YsDu9yCEGvKfFMRaCV+diTd/Clx+yYx
3gw7QXHw4eU+R60Igg3XocgmlMkb1mTfzPDlonYUi5KeR06oMO54A6gRFTv5sLg6
+pdVXR+tTk7fhy7ULMA0F6lqlbcda82gaQ==
-----END CERTIFICATE-----
