Certificate:
    Data:
        Version: 3 (0x2)
        Serial Number: 5 (0x5)
    Signature Algorithm: sha1WithRSAEncryption
        Issuer: C=CN, ST=t, L=t, O=t, OU=t, CN=t/emailAddress=t
        Validity
            Not Before: Dec  5 13:15:42 2016 GMT
            Not After : Feb 21 13:15:42 2025 GMT
        Subject: C=CN, ST=t, O=t, OU=t, CN=t/emailAddress=t
        Subject Public Key Info:
            Public Key Algorithm: rsaEncryption
                Public-Key: (2048 bit)
                Modulus:
                    00:b7:79:87:a2:3d:0b:cb:0c:b4:b2:43:7e:3a:fd:
                    71:c0:0f:e5:6f:45:54:51:b4:18:d2:76:7f:e6:eb:
                    b0:47:62:af:a8:af:aa:74:40:41:0c:03:bf:a2:f0:
                    0e:af:fd:74:00:16:61:26:aa:70:7c:eb:30:8d:34:
                    ff:b7:97:1c:c1:01:ee:62:6d:05:47:50:46:31:09:
                    90:8a:ce:24:14:4e:8a:7e:4f:43:6d:d9:86:1b:eb:
                    5a:ab:6e:03:9f:77:b1:92:60:2e:b3:e5:4b:82:fb:
                    b5:58:07:cd:e1:ff:23:7f:67:36:e4:66:79:3d:74:
                    cc:ad:a3:3d:ae:49:32:d3:fc:90:26:ac:1d:33:22:
                    13:4e:a2:47:37:5c:d4:05:98:d9:85:f9:1c:41:7e:
                    94:da:84:4d:d9:9f:42:94:dd:7f:da:62:79:20:ca:
                    ed:e5:ae:1e:bb:20:e3:a5:fd:9f:34:41:59:35:eb:
                    83:fb:7d:a2:ce:9b:44:8b:80:10:55:c5:e8:60:43:
                    25:9f:b9:81:e5:dc:27:a5:dc:aa:07:ae:d4:27:b3:
                    31:bd:ba:77:70:f0:e9:65:11:87:70:ad:fd:76:7a:
                    9e:e6:e1:81:10:ff:e4:7f:88:dd:49:29:4c:61:5b:
                    9d:e2:14:62:6b:d4:37:47:a5:31:d7:6d:ce:28:b8:
                    0e:8d
                Exponent: 65537 (0x10001)
        X509v3 extensions:
            X509v3 Subject Key Identifier: 
                A6:1D:F3:FE:BA:EA:46:7D:E8:05:F5:5E:7B:09:40:19:92:53:7D:5E
            X509v3 Authority Key Identifier: 
                keyid:0F:FA:0E:0A:DE:B4:1E:35:85:E1:35:9B:F7:D0:D9:5F:E6:B3:3F:46

            X509v3 Basic Constraints: 
                CA:TRUE
    Signature Algorithm: sha1WithRSAEncryption
         75:2f:ae:8d:68:83:48:e1:69:cc:6f:ff:43:03:8a:5e:e1:62:
         48:46:4b:22:22:b9:72:cf:ae:5a:8d:27:90:86:56:92:6b:91:
         74:61:ac:6b:03:80:78:db:cb:4d:32:16:d1:a8:fb:1b:5f:16:
         d5:8e:84:ba:9c:05:16:05:8b:3a:54:4d:7f:82:54:44:03:31:
         dd:3d:7e:50:9b:94:ac:b2:61:a1:84:8c:6f:51:d2:bf:00:95:
         47:34:76:fe:38:b3:cf:2e:74:56:0a:18:64:a6:78:12:3b:c8:
         9c:0a:66:63:12:e6:47:4b:e4:30:b5:74:e9:83:c3:72:1d:01:
         1f:4f:76:84:b0:13:22:63:58:8e:c0:29:02:b0:3e:4e:dd:f6:
         bd:00:16:29:91:d2:38:90:0a:45:a1:c0:86:d9:e1:64:03:44:
         92:6e:18:99:7f:c4:f2:dd:0d:17:40:9f:e2:2e:8b:dc:b3:c2:
         c4:1d:6a:a3:7c:bf:3e:5f:52:b6:28:77:b9:35:19:8b:84:a6:
         30:32:56:98:5d:1a:ce:77:5e:32:9c:e0:99:60:8d:41:7e:e8:
         05:c4:9a:2f:82:06:a1:d6:a9:18:b3:4c:2d:15:35:96:b6:c0:
         82:1f:d8:53:b4:b2:3c:73:da:66:dc:8c:22:06:89:04:c0:8e:
         a5:30:5b:cb
-----BEGIN CERTIFICATE-----
MIIDdTCCAl2gAwIBAgIBBTANBgkqhkiG9w0BAQUFADBbMQswCQYDVQQGEwJDTjEK
MAgGA1UECAwBdDEKMAgGA1UEBwwBdDEKMAgGA1UECgwBdDEKMAgGA1UECwwBdDEK
MAgGA1UEAwwBdDEQMA4GCSqGSIb3DQEJARYBdDAeFw0xNjEyMDUxMzE1NDJaFw0y
NTAyMjExMzE1NDJaME8xCzAJBgNVBAYTAkNOMQowCAYDVQQIDAF0MQowCAYDVQQK
DAF0MQowCAYDVQQLDAF0MQowCAYDVQQDDAF0MRAwDgYJKoZIhvcNAQkBFgF0MIIB
IjANBgkqhkiG9w0BAQEFAAOCAQ8AMIIBCgKCAQEAt3mHoj0Lywy0skN+Ov1xwA/l
b0VUUbQY0nZ/5uuwR2KvqK+qdEBBDAO/ovAOr/10ABZhJqpwfOswjTT/t5ccwQHu
Ym0FR1BGMQmQis4kFE6Kfk9DbdmGG+taq24Dn3exkmAus+VLgvu1WAfN4f8jf2c2
5GZ5PXTMraM9rkky0/yQJqwdMyITTqJHN1zUBZjZhfkcQX6U2oRN2Z9ClN1/2mJ5
IMrt5a4euyDjpf2fNEFZNeuD+32izptEi4AQVcXoYEMln7mB5dwnpdyqB67UJ7Mx
vbp3cPDpZRGHcK39dnqe5uGBEP/kf4jdSSlMYVud4hRia9Q3R6Ux123OKLgOjQID
AQABo1AwTjAdBgNVHQ4EFgQUph3z/rrqRn3oBfVeewlAGZJTfV4wHwYDVR0jBBgw
FoAUD/oOCt60HjWF4TWb99DZX+azP0YwDAYDVR0TBAUwAwEB/zANBgkqhkiG9w0B
AQUFAAOCAQEAdS+ujWiDSOFpzG//QwOKXuFiSEZLIiK5cs+uWo0nkIZWkmuRdGGs
awOAeNvLTTIW0aj7G18W1Y6EupwFFgWLOlRNf4JURAMx3T1+UJuUrLJhoYSMb1HS
vwCVRzR2/jizzy50VgoYZKZ4EjvInApmYxLmR0vkMLV06YPDch0BH092hLATImNY
jsApArA+Tt32vQAWKZHSOJAKRaHAhtnhZANEkm4YmX/E8t0NF0Cf4i6L3LPCxB1q
o3y/Pl9Stih3uTUZi4SmMDJWmF0azndeMpzgmWCNQX7oBcSaL4IGodapGLNMLRU1
lrbAgh/YU7SyPHPaZtyMIgaJBMCOpTBbyw==
-----END CERTIFICATE-----
