Certificate:
    Data:
        Version: 3 (0x2)
        Serial Number: 6 (0x6)
    Signature Algorithm: sha1WithRSAEncryption
        Issuer: C=CN, ST=t, L=t, O=t, OU=t, CN=t/emailAddress=t
        Validity
            Not Before: Dec  5 13:23:56 2016 GMT
            Not After : Feb 21 13:23:56 2025 GMT
        Subject: C=CN, ST=t, O=t, OU=t, CN=t/emailAddress=123123
        Subject Public Key Info:
            Public Key Algorithm: rsaEncryption
                Public-Key: (2048 bit)
                Modulus:
                    00:c6:a0:60:cc:9c:c0:01:9f:1e:2e:47:c4:9b:4b:
                    61:53:bc:01:c7:3a:e3:04:df:7c:c1:ee:51:4f:d0:
                    eb:a3:38:a3:d2:4d:99:23:87:69:70:f0:0d:38:3f:
                    ee:d7:4a:dd:19:fa:f7:ac:49:8e:f6:37:e9:57:43:
                    be:4c:14:9d:77:f5:de:39:34:f8:f3:1e:0f:5d:27:
                    d2:8f:4b:95:13:95:51:b0:de:75:57:eb:2b:c1:c7:
                    24:da:95:70:17:5b:b5:1a:b0:fc:1c:7c:1e:93:3c:
                    dd:25:25:f5:55:8a:9c:49:4e:d8:62:2e:40:ea:4e:
                    84:d0:48:f7:db:38:a9:61:04:0e:30:b7:2a:92:47:
                    7c:86:14:85:63:89:0a:db:24:4a:01:b5:87:cf:53:
                    04:09:d3:1e:b5:f6:ba:b5:73:77:80:ed:5f:26:f4:
                    ef:cc:0d:86:e2:1d:95:8e:6d:e0:9e:0f:26:5e:c3:
                    f0:dc:7f:9d:a1:f1:ff:35:d3:0b:5f:56:f7:70:95:
                    90:74:6e:09:b9:e9:79:25:c4:10:2a:b4:87:c4:d5:
                    14:09:75:9b:16:01:0c:c7:ef:c0:56:08:9e:ed:bb:
                    c8:e0:98:1e:89:8d:a0:c7:1d:6f:d8:7b:86:7a:94:
                    f7:9e:c4:12:bd:85:bf:53:1c:69:4c:b6:36:09:56:
                    3a:af
                Exponent: 65537 (0x10001)
        X509v3 extensions:
            X509v3 Subject Key Identifier: 
                26:7A:39:00:83:FA:00:C3:26:AE:BF:00:2C:66:8E:96:CE:F5:FB:7C
            X509v3 Authority Key Identifier: 
                keyid:0F:FA:0E:0A:DE:B4:1E:35:85:E1:35:9B:F7:D0:D9:5F:E6:B3:3F:46

            X509v3 Basic Constraints: 
                CA:TRUE
    Signature Algorithm: sha1WithRSAEncryption
         32:c4:39:d4:93:f0:e4:70:73:2e:6f:7f:f4:76:71:2e:d7:8f:
         f0:b6:ed:fe:b9:07:02:05:dc:7f:50:cd:6d:0f:78:53:02:13:
         37:85:ec:b8:0e:35:1b:bc:23:b6:da:3d:6d:15:5c:ce:15:9c:
         27:24:e3:f4:ce:21:5c:85:75:1c:e6:7b:4b:66:82:1d:94:79:
         cf:12:25:af:47:dc:08:ff:0b:01:f2:af:ed:07:8f:3d:58:73:
         53:fc:ed:b0:dc:c0:70:8c:14:c2:cc:88:4d:c3:bf:95:0d:93:
         95:2f:87:e1:5f:03:43:a3:1f:cc:2a:1c:e2:2f:5e:a2:6c:97:
         ff:6f:6b:db:16:c0:97:f4:83:f9:c4:5a:64:5e:a5:b3:43:b2:
         9b:58:ad:91:ec:e4:cd:77:8e:64:82:b9:41:bb:db:36:1d:ed:
         23:3b:56:df:e1:19:dc:1b:09:7b:0b:4f:9a:c4:06:4c:94:86:
         e1:d8:56:ce:c9:1d:44:f7:b1:fb:da:9c:52:4d:ca:3e:a9:03:
         9d:ba:f1:64:86:c1:f9:82:24:8a:b7:2b:34:92:af:6e:3e:3a:
         e3:37:e2:b9:6e:10:ec:11:82:16:d5:0a:ef:f4:b2:39:8c:98:
         61:65:ee:20:55:6f:59:fd:3c:15:a0:55:89:a6:21:3c:e7:d1:
         52:61:7d:24
-----BEGIN CERTIFICATE-----
MIIDejCCAmKgAwIBAgIBBjANBgkqhkiG9w0BAQUFADBbMQswCQYDVQQGEwJDTjEK
MAgGA1UECAwBdDEKMAgGA1UEBwwBdDEKMAgGA1UECgwBdDEKMAgGA1UECwwBdDEK
MAgGA1UEAwwBdDEQMA4GCSqGSIb3DQEJARYBdDAeFw0xNjEyMDUxMzIzNTZaFw0y
NTAyMjExMzIzNTZaMFQxCzAJBgNVBAYTAkNOMQowCAYDVQQIDAF0MQowCAYDVQQK
DAF0MQowCAYDVQQLDAF0MQowCAYDVQQDDAF0MRUwEwYJKoZIhvcNAQkBFgYxMjMx
MjMwggEiMA0GCSqGSIb3DQEBAQUAA4IBDwAwggEKAoIBAQDGoGDMnMABnx4uR8Sb
S2FTvAHHOuME33zB7lFP0OujOKPSTZkjh2lw8A04P+7XSt0Z+vesSY72N+lXQ75M
FJ139d45NPjzHg9dJ9KPS5UTlVGw3nVX6yvBxyTalXAXW7UasPwcfB6TPN0lJfVV
ipxJTthiLkDqToTQSPfbOKlhBA4wtyqSR3yGFIVjiQrbJEoBtYfPUwQJ0x619rq1
c3eA7V8m9O/MDYbiHZWObeCeDyZew/Dcf52h8f810wtfVvdwlZB0bgm56XklxBAq
tIfE1RQJdZsWAQzH78BWCJ7tu8jgmB6JjaDHHW/Ye4Z6lPeexBK9hb9THGlMtjYJ
VjqvAgMBAAGjUDBOMB0GA1UdDgQWBBQmejkAg/oAwyauvwAsZo6WzvX7fDAfBgNV
HSMEGDAWgBQP+g4K3rQeNYXhNZv30Nlf5rM/RjAMBgNVHRMEBTADAQH/MA0GCSqG
SIb3DQEBBQUAA4IBAQAyxDnUk/DkcHMub3/0dnEu14/wtu3+uQcCBdx/UM1tD3hT
AhM3hey4DjUbvCO22j1tFVzOFZwnJOP0ziFchXUc5ntLZoIdlHnPEiWvR9wI/wsB
8q/tB489WHNT/O2w3MBwjBTCzIhNw7+VDZOVL4fhXwNDox/MKhziL16ibJf/b2vb
FsCX9IP5xFpkXqWzQ7KbWK2R7OTNd45kgrlBu9s2He0jO1bf4RncGwl7C0+axAZM
lIbh2FbOyR1E97H72pxSTco+qQOduvFkhsH5giSKtys0kq9uPjrjN+K5bhDsEYIW
1Qrv9LI5jJhhZe4gVW9Z/TwVoFWJpiE859FSYX0k
-----END CERTIFICATE-----
