Certificate:
    Data:
        Version: 3 (0x2)
        Serial Number: 8 (0x8)
    Signature Algorithm: md5WithRSAEncryption
        Issuer: C=CN, ST=t, O=t, OU=t, CN=t/emailAddress=t
        Validity
            Not Before: Dec  5 13:27:46 2016 GMT
            Not After : Feb 21 13:27:46 2025 GMT
        Subject: C=CN, ST=t, O=t, OU=a, CN=aa/emailAddress=aa
        Subject Public Key Info:
            Public Key Algorithm: rsaEncryption
                Public-Key: (2048 bit)
                Modulus:
                    00:b2:ba:6b:50:a6:22:99:f9:6f:a6:29:bd:86:28:
                    e9:b3:0b:30:09:3b:31:81:80:99:07:d2:27:4b:ba:
                    ae:2a:0c:e2:90:34:5b:9d:cd:89:cc:eb:00:70:ef:
                    6a:13:90:6a:32:c6:20:9d:d3:c3:6c:33:89:ec:fc:
                    9b:74:6f:63:72:f4:02:0b:76:21:61:5c:7a:9a:3b:
                    10:4f:09:24:6c:d4:4a:e7:13:01:3e:8e:90:80:0b:
                    7e:98:be:4c:ea:9a:cd:ca:25:60:98:6d:a5:a0:8b:
                    6f:0f:10:b5:d3:39:52:aa:b3:9f:95:91:f6:5b:b0:
                    4d:41:26:1c:88:fe:7e:6b:25:27:31:fe:5f:41:fd:
                    16:db:e7:bc:f1:f4:60:98:2d:c3:46:60:ee:82:f3:
                    d8:c8:e5:de:07:38:4f:f1:50:40:2b:36:05:15:9c:
                    2a:54:14:ff:86:9a:4c:29:2e:e9:2d:62:4c:93:46:
                    1b:fd:23:df:62:79:b1:ff:e1:3b:a4:e2:fc:f9:bd:
                    77:d6:6c:51:08:bb:f8:cf:25:fa:b3:4c:89:04:2e:
                    b2:6f:77:68:85:80:37:9d:8f:3e:48:9f:b5:6f:78:
                    61:ee:95:1b:e2:5e:f7:0b:2c:e9:cb:09:23:c6:82:
                    78:36:c2:32:13:af:01:78:7e:e3:a7:87:2b:39:79:
                    8f:4f
                Exponent: 65537 (0x10001)
        X509v3 extensions:
            X509v3 Subject Key Identifier: 
                BA:92:22:C5:B0:08:48:54:5C:D4:56:45:66:04:57:D6:0D:9E:90:D1
            X509v3 Authority Key Identifier: 
                keyid:0B:72:B8:2D:09:5D:CC:BA:0C:17:4D:38:96:B8:6E:F7:C9:FF:5B:49

            X509v3 Basic Constraints: 
                CA:TRUE
    Signature Algorithm: md5WithRSAEncryption
         20:07:e2:1c:37:49:94:64:ff:a3:32:ad:6e:4a:47:ea:09:d9:
         7b:1c:5a:ab:2b:6a:05:52:01:aa:d2:4d:b4:d1:1d:8b:55:1a:
         9f:bf:7e:f6:67:14:11:16:40:91:13:2e:b7:a2:e3:2b:64:96:
         34:7d:6e:c1:33:6a:2b:bf:d8:ca:0c:3d:c4:a0:9e:d6:29:67:
         65:fc:94:d7:2c:51:16:fd:ba:f6:c1:44:d5:c9:d1:30:8a:d4:
         64:78:ba:24:8b:3c:fd:97:f4:db:39:43:5c:e7:f4:6e:71:74:
         8b:67:18:83:2d:c6:55:e6:c1:1f:ad:f1:11:b1:36:1a:aa:95:
         c3:f3:53:0c:1f:b2:51:82:f8:e7:8a:0b:1b:38:d1:d7:bf:83:
         67:5c:3c:89:43:03:ee:44:ef:f0:e9:02:34:a3:c6:ae:5a:d4:
         53:eb:b5:d2:28:d4:c8:8f:70:a5:ad:e2:83:79:77:44:75:06:
         2f:68:b0:32:24:39:09:be:76:6d:f0:b1:51:c8:83:40:d4:0e:
         c1:27:d3:08:8d:90:51:1c:4e:9d:82:d0:f8:28:2c:3e:4b:1a:
         bc:d0:3a:a4:95:0b:01:13:65:94:b6:c4:58:b5:67:9e:5d:89:
         c1:2c:96:e6:27:ad:67:f2:09:08:07:1e:73:f2:20:b0:bb:0d:
         b2:b7:a0:e4
-----BEGIN CERTIFICATE-----
MIIDazCCAlOgAwIBAgIBCDANBgkqhkiG9w0BAQQFADBPMQswCQYDVQQGEwJDTjEK
MAgGA1UECAwBdDEKMAgGA1UECgwBdDEKMAgGA1UECwwBdDEKMAgGA1UEAwwBdDEQ
MA4GCSqGSIb3DQEJARYBdDAeFw0xNjEyMDUxMzI3NDZaFw0yNTAyMjExMzI3NDZa
MFExCzAJBgNVBAYTAkNOMQowCAYDVQQIDAF0MQowCAYDVQQKDAF0MQowCAYDVQQL
DAFhMQswCQYDVQQDDAJhYTERMA8GCSqGSIb3DQEJARYCYWEwggEiMA0GCSqGSIb3
DQEBAQUAA4IBDwAwggEKAoIBAQCyumtQpiKZ+W+mKb2GKOmzCzAJOzGBgJkH0idL
uq4qDOKQNFudzYnM6wBw72oTkGoyxiCd08NsM4ns/Jt0b2Ny9AILdiFhXHqaOxBP
CSRs1ErnEwE+jpCAC36Yvkzqms3KJWCYbaWgi28PELXTOVKqs5+VkfZbsE1BJhyI
/n5rJScx/l9B/Rbb57zx9GCYLcNGYO6C89jI5d4HOE/xUEArNgUVnCpUFP+Gmkwp
LuktYkyTRhv9I99iebH/4Tuk4vz5vXfWbFEIu/jPJfqzTIkELrJvd2iFgDedjz5I
n7VveGHulRviXvcLLOnLCSPGgng2wjITrwF4fuOnhys5eY9PAgMBAAGjUDBOMB0G
A1UdDgQWBBS6kiLFsAhIVFzUVkVmBFfWDZ6Q0TAfBgNVHSMEGDAWgBQLcrgtCV3M
ugwXTTiWuG73yf9bSTAMBgNVHRMEBTADAQH/MA0GCSqGSIb3DQEBBAUAA4IBAQAg
B+IcN0mUZP+jMq1uSkfqCdl7HFqrK2oFUgGq0k200R2LVRqfv372ZxQRFkCREy63
ouMrZJY0fW7BM2orv9jKDD3EoJ7WKWdl/JTXLFEW/br2wUTVydEwitRkeLokizz9
l/TbOUNc5/RucXSLZxiDLcZV5sEfrfERsTYaqpXD81MMH7JRgvjnigsbONHXv4Nn
XDyJQwPuRO/w6QI0o8auWtRT67XSKNTIj3ClreKDeXdEdQYvaLAyJDkJvnZt8LFR
yINA1A7BJ9MIjZBRHE6dgtD4KCw+Sxq80DqklQsBE2WUtsRYtWeeXYnBLJbmJ61n
8gkIBx5z8iCwuw2yt6Dk
-----END CERTIFICATE-----
